target datalayout = "e-m:e-p270:32:32-p271:32:32-p272:64:64-i64:64-i128:128-f80:128-n8:16:32:64-S128"
target triple = "x86_64-pc-linux-gnu"

%struct.H5D_io_info_t = type { ptr, %struct.H5D_md_io_ops_t, i32, i64, i64, ptr, i64, i64, i64, ptr, ptr, ptr, ptr, ptr, ptr, ptr, i64, %union.H5_flexible_const_ptr_t, i32, ptr, i8, i64, ptr, i8, i64, i64, i8, i8, i32 }
%struct.H5D_md_io_ops_t = type { ptr, ptr, ptr, ptr }
%union.H5_flexible_const_ptr_t = type { ptr }
%struct.H5D_dset_io_info_t = type { ptr, ptr, %struct.H5D_layout_ops_t, %union.H5_flexible_const_ptr_t, %struct.H5D_io_ops_t, ptr, i64, ptr, ptr, %union.anon, ptr, %struct.H5D_type_info_t, i8 }
%struct.H5D_layout_ops_t = type { ptr, ptr, ptr, ptr, ptr, ptr, ptr, ptr, ptr, ptr, ptr, ptr, ptr }
%struct.H5D_io_ops_t = type { ptr, ptr, ptr, ptr }
%union.anon = type { ptr }
%struct.H5D_type_info_t = type { ptr, ptr, ptr, ptr, ptr, i64, i64, i8, i8, ptr, i32, i64 }
%struct.H5D_t = type { %struct.H5O_loc_t, %struct.H5G_name_t, ptr }
%struct.H5O_loc_t = type { ptr, i64, i8 }
%struct.H5G_name_t = type { ptr, ptr, i32 }

@.str.1 = private unnamed_addr constant [99 x i8] c"generated/home/dtcxzyw/WorkSpace/Projects/compilers/llvm-opt-benchmark/bench/hdf5/hdf5/src/H5Dio.c\00", align 1
@H5E_DATASET_g = external global i64, align 8
@H5E_CANTGET_g = external global i64, align 8
@__func__.H5D__typeinfo_init_phase2 = private unnamed_addr constant [26 x i8] c"H5D__typeinfo_init_phase2\00", align 1
@.str.45 = private unnamed_addr constant [35 x i8] c"can't retrieve max. temp. buf size\00", align 1

; Function Attrs: nounwind uwtable
define internal i32 @H5D__typeinfo_init_phase2(ptr noundef %0) #0 {
  %2 = alloca ptr, align 8
  %3 = alloca i32, align 4
  %4 = alloca i8, align 1
  %5 = alloca i64, align 8
  %6 = alloca i64, align 8
  %7 = alloca ptr, align 8
  store ptr %0, ptr %2, align 8
  store i32 0, ptr %3, align 4
  store i8 0, ptr %4, align 1
  %8 = load ptr, ptr %2, align 8
  %9 = getelementptr inbounds %struct.H5D_io_info_t, ptr %8, i32 0, i32 18
  %10 = load i32, ptr %9, align 8
  %11 = icmp eq i32 %10, 0
  br i1 %11, label %12, label %38

12:                                               ; preds = %1
  %13 = load ptr, ptr %2, align 8
  %14 = getelementptr inbounds %struct.H5D_io_info_t, ptr %13, i32 0, i32 5
  %15 = load ptr, ptr %14, align 8
  %16 = getelementptr inbounds %struct.H5D_dset_io_info_t, ptr %15, i64 0
  %17 = getelementptr inbounds %struct.H5D_dset_io_info_t, ptr %16, i32 0, i32 0
  %18 = load ptr, ptr %17, align 8
  %19 = getelementptr inbounds %struct.H5D_t, ptr %18, i32 0, i32 0
  %20 = getelementptr inbounds %struct.H5O_loc_t, ptr %19, i32 0, i32 0
  %21 = load ptr, ptr %20, align 8
  %22 = load ptr, ptr %2, align 8
  %23 = getelementptr inbounds %struct.H5D_io_info_t, ptr %22, i32 0, i32 2
  %24 = load i32, ptr %23, align 8
  %25 = icmp eq i32 %24, 1
  %26 = call zeroext i1 @H5F_has_vector_select_io(ptr noundef %21, i1 noundef zeroext %25)
  br i1 %26, label %27, label %30

27:                                               ; preds = %12
  %28 = load ptr, ptr %2, align 8
  %29 = getelementptr inbounds %struct.H5D_io_info_t, ptr %28, i32 0, i32 18
  store i32 2, ptr %29, align 8
  br label %37

30:                                               ; preds = %12
  %31 = load ptr, ptr %2, align 8
  %32 = getelementptr inbounds %struct.H5D_io_info_t, ptr %31, i32 0, i32 18
  store i32 1, ptr %32, align 8
  %33 = load ptr, ptr %2, align 8
  %34 = getelementptr inbounds %struct.H5D_io_info_t, ptr %33, i32 0, i32 28
  %35 = load i32, ptr %34, align 4
  %36 = or i32 %35, 512
  store i32 %36, ptr %34, align 4
  br label %37

37:                                               ; preds = %30, %27
  br label %38

38:                                               ; preds = %37, %1
  %39 = load ptr, ptr %2, align 8
  %40 = getelementptr inbounds %struct.H5D_io_info_t, ptr %39, i32 0, i32 25
  %41 = load i64, ptr %40, align 8
  %42 = icmp ne i64 %41, 0
  br i1 %42, label %43, label %151

43:                                               ; preds = %38
  %44 = load ptr, ptr %2, align 8
  %45 = getelementptr inbounds %struct.H5D_io_info_t, ptr %44, i32 0, i32 18
  %46 = load i32, ptr %45, align 8
  %47 = icmp ne i32 %46, 1
  br i1 %47, label %48, label %151

48:                                               ; preds = %43
  store i64 0, ptr %6, align 8
  br label %49

49:                                               ; preds = %91, %48
  %50 = load i64, ptr %6, align 8
  %51 = load ptr, ptr %2, align 8
  %52 = getelementptr inbounds %struct.H5D_io_info_t, ptr %51, i32 0, i32 3
  %53 = load i64, ptr %52, align 8
  %54 = icmp ult i64 %50, %53
  br i1 %54, label %55, label %94

55:                                               ; preds = %49
  %56 = load ptr, ptr %2, align 8
  %57 = getelementptr inbounds %struct.H5D_io_info_t, ptr %56, i32 0, i32 5
  %58 = load ptr, ptr %57, align 8
  %59 = load i64, ptr %6, align 8
  %60 = getelementptr inbounds %struct.H5D_dset_io_info_t, ptr %58, i64 %59
  %61 = getelementptr inbounds %struct.H5D_dset_io_info_t, ptr %60, i32 0, i32 11
  store ptr %61, ptr %7, align 8
  %62 = load ptr, ptr %7, align 8
  %63 = getelementptr inbounds %struct.H5D_type_info_t, ptr %62, i32 0, i32 10
  %64 = load i32, ptr %63, align 8
  %65 = icmp ne i32 %64, 0
  br i1 %65, label %66, label %90

66:                                               ; preds = %55
  %67 = load ptr, ptr %2, align 8
  %68 = getelementptr inbounds %struct.H5D_io_info_t, ptr %67, i32 0, i32 5
  %69 = load ptr, ptr %68, align 8
  %70 = load i64, ptr %6, align 8
  %71 = getelementptr inbounds %struct.H5D_dset_io_info_t, ptr %69, i64 %70
  %72 = getelementptr inbounds %struct.H5D_dset_io_info_t, ptr %71, i32 0, i32 6
  %73 = load i64, ptr %72, align 8
  %74 = load ptr, ptr %7, align 8
  %75 = getelementptr inbounds %struct.H5D_type_info_t, ptr %74, i32 0, i32 6
  %76 = load i64, ptr %75, align 8
  %77 = mul i64 %73, %76
  %78 = load ptr, ptr %2, align 8
  %79 = getelementptr inbounds %struct.H5D_io_info_t, ptr %78, i32 0, i32 24
  %80 = load i64, ptr %79, align 8
  %81 = add i64 %80, %77
  store i64 %81, ptr %79, align 8
  %82 = load ptr, ptr %7, align 8
  %83 = getelementptr inbounds %struct.H5D_type_info_t, ptr %82, i32 0, i32 10
  %84 = load i32, ptr %83, align 8
  %85 = icmp eq i32 %84, 2
  br i1 %85, label %86, label %89

86:                                               ; preds = %66
  %87 = load ptr, ptr %2, align 8
  %88 = getelementptr inbounds %struct.H5D_io_info_t, ptr %87, i32 0, i32 26
  store i8 1, ptr %88, align 8
  br label %89

89:                                               ; preds = %86, %66
  br label %90

90:                                               ; preds = %89, %55
  br label %91

91:                                               ; preds = %90
  %92 = load i64, ptr %6, align 8
  %93 = add i64 %92, 1
  store i64 %93, ptr %6, align 8
  br label %49

94:                                               ; preds = %49
  %95 = call i32 @H5CX_get_max_temp_buf(ptr noundef %5)
  %96 = icmp slt i32 %95, 0
  br i1 %96, label %97, label %112

97:                                               ; preds = %94
  br label %98

98:                                               ; preds = %97
  br label %99

99:                                               ; preds = %98
  br label %100

100:                                              ; preds = %99
  %101 = load i64, ptr @H5E_DATASET_g, align 8
  %102 = load i64, ptr @H5E_CANTGET_g, align 8
  %103 = call i32 (ptr, ptr, i32, i64, i64, ptr, ...) @H5E_printf_stack(ptr noundef @.str.1, ptr noundef @__func__.H5D__typeinfo_init_phase2, i32 noundef 1204, i64 noundef %101, i64 noundef %102, ptr noundef @.str.45)
  br label %104

104:                                              ; preds = %100
  store i8 1, ptr %4, align 1
  %105 = load i8, ptr %4, align 1
  %106 = trunc i8 %105 to i1
  %107 = zext i1 %106 to i8
  store i8 %107, ptr %4, align 1
  br label %108

108:                                              ; preds = %104
  br label %109

109:                                              ; preds = %108
  store i32 -1, ptr %3, align 4
  br label %152

110:                                              ; No predecessors!
  br label %111

111:                                              ; preds = %110
  br label %112

112:                                              ; preds = %111, %94
  %113 = load ptr, ptr %2, align 8
  %114 = getelementptr inbounds %struct.H5D_io_info_t, ptr %113, i32 0, i32 21
  %115 = load i64, ptr %114, align 8
  %116 = load i64, ptr %5, align 8
  %117 = icmp ugt i64 %115, %116
  br i1 %117, label %118, label %131

118:                                              ; preds = %112
  %119 = load ptr, ptr %2, align 8
  %120 = getelementptr inbounds %struct.H5D_io_info_t, ptr %119, i32 0, i32 18
  store i32 1, ptr %120, align 8
  %121 = load ptr, ptr %2, align 8
  %122 = getelementptr inbounds %struct.H5D_io_info_t, ptr %121, i32 0, i32 28
  %123 = load i32, ptr %122, align 4
  %124 = or i32 %123, 128
  store i32 %124, ptr %122, align 4
  %125 = load ptr, ptr %2, align 8
  %126 = getelementptr inbounds %struct.H5D_io_info_t, ptr %125, i32 0, i32 21
  store i64 0, ptr %126, align 8
  %127 = load ptr, ptr %2, align 8
  %128 = getelementptr inbounds %struct.H5D_io_info_t, ptr %127, i32 0, i32 24
  store i64 0, ptr %128, align 8
  %129 = load ptr, ptr %2, align 8
  %130 = getelementptr inbounds %struct.H5D_io_info_t, ptr %129, i32 0, i32 26
  store i8 0, ptr %130, align 8
  br label %131

131:                                              ; preds = %118, %112
  %132 = load ptr, ptr %2, align 8
  %133 = getelementptr inbounds %struct.H5D_io_info_t, ptr %132, i32 0, i32 24
  %134 = load i64, ptr %133, align 8
  %135 = load i64, ptr %5, align 8
  %136 = icmp ugt i64 %134, %135
  br i1 %136, label %137, label %150

137:                                              ; preds = %131
  %138 = load ptr, ptr %2, align 8
  %139 = getelementptr inbounds %struct.H5D_io_info_t, ptr %138, i32 0, i32 18
  store i32 1, ptr %139, align 8
  %140 = load ptr, ptr %2, align 8
  %141 = getelementptr inbounds %struct.H5D_io_info_t, ptr %140, i32 0, i32 28
  %142 = load i32, ptr %141, align 4
  %143 = or i32 %142, 256
  store i32 %143, ptr %141, align 4
  %144 = load ptr, ptr %2, align 8
  %145 = getelementptr inbounds %struct.H5D_io_info_t, ptr %144, i32 0, i32 21
  store i64 0, ptr %145, align 8
  %146 = load ptr, ptr %2, align 8
  %147 = getelementptr inbounds %struct.H5D_io_info_t, ptr %146, i32 0, i32 24
  store i64 0, ptr %147, align 8
  %148 = load ptr, ptr %2, align 8
  %149 = getelementptr inbounds %struct.H5D_io_info_t, ptr %148, i32 0, i32 26
  store i8 0, ptr %149, align 8
  br label %150

150:                                              ; preds = %137, %131
  br label %151

151:                                              ; preds = %150, %43, %38
  br label %152

152:                                              ; preds = %151, %109
  %153 = load i32, ptr %3, align 4
  ret i32 %153
}