; Function Attrs: nounwind uwtable
define internal fastcc range(i32 -1, 1) i32 @H5D__typeinfo_init_phase2(ptr nocapture noundef %0) unnamed_addr #0 {
  %2 = alloca i64, align 8
  %3 = getelementptr inbounds i8, ptr %0, i64 168
  %4 = load i32, ptr %3, align 8
  %5 = icmp eq i32 %4, 0
  br i1 %5, label %6, label %19

6:                                                ; preds = %1
  %7 = getelementptr inbounds i8, ptr %0, i64 64
  %8 = load ptr, ptr %7, align 8
  %9 = load ptr, ptr %8, align 8
  %10 = load ptr, ptr %9, align 8
  %11 = getelementptr inbounds i8, ptr %0, i64 40
  %12 = load i32, ptr %11, align 8
  %13 = icmp eq i32 %12, 1
  %14 = tail call zeroext i1 @H5F_has_vector_select_io(ptr noundef %10, i1 noundef zeroext %13) #9
  br i1 %14, label %.thread, label %15

15:                                               ; preds = %6
  store i32 1, ptr %3, align 8
  %16 = getelementptr inbounds i8, ptr %0, i64 236
  %17 = load i32, ptr %16, align 4
  %18 = or i32 %17, 512
  store i32 %18, ptr %16, align 4
  br label %19

19:                                               ; preds = %15, %1
  %20 = phi i32 [ 1, %15 ], [ %4, %1 ]
  %21 = getelementptr inbounds i8, ptr %0, i64 224
  %22 = load i64, ptr %21, align 8
  %.not = icmp eq i64 %22, 0
  %.not34 = icmp eq i32 %20, 1
  %or.cond = or i1 %.not, %.not34
  br i1 %or.cond, label %72, label %.preheader

.thread:                                          ; preds = %6
  store i32 2, ptr %3, align 8
  %23 = getelementptr inbounds i8, ptr %0, i64 224
  %24 = load i64, ptr %23, align 8
  %.not39 = icmp eq i64 %24, 0
  br i1 %.not39, label %72, label %.preheader

.preheader:                                       ; preds = %19, %.thread
  %25 = getelementptr inbounds i8, ptr %0, i64 48
  %26 = load i64, ptr %25, align 8
  %.not37 = icmp eq i64 %26, 0
  br i1 %.not37, label %._crit_edge, label %.lr.ph

.lr.ph:                                           ; preds = %.preheader
  %27 = getelementptr inbounds i8, ptr %0, i64 64
  %28 = load ptr, ptr %27, align 8
  %29 = getelementptr inbounds i8, ptr %0, i64 216
  %30 = getelementptr inbounds i8, ptr %0, i64 232
  br label %31

31:                                               ; preds = %.lr.ph, %46
  %.03336 = phi i64 [ 0, %.lr.ph ], [ %47, %46 ]
  %32 = getelementptr inbounds %struct.H5D_dset_io_info_t, ptr %28, i64 %.03336
  %33 = getelementptr inbounds i8, ptr %32, i64 280
  %34 = load i32, ptr %33, align 8
  %.not35 = icmp eq i32 %34, 0
  br i1 %.not35, label %46, label %35

35:                                               ; preds = %31
  %36 = getelementptr inbounds i8, ptr %32, i64 168
  %37 = load i64, ptr %36, align 8
  %38 = getelementptr inbounds i8, ptr %32, i64 256
  %39 = load i64, ptr %38, align 8
  %40 = mul i64 %39, %37
  %41 = load i64, ptr %29, align 8
  %42 = add i64 %41, %40
  store i64 %42, ptr %29, align 8
  %43 = load i32, ptr %33, align 8
  %44 = icmp eq i32 %43, 2
  br i1 %44, label %45, label %46

45:                                               ; preds = %35
  store i8 1, ptr %30, align 8
  br label %46

46:                                               ; preds = %31, %45, %35
  %47 = add nuw i64 %.03336, 1
  %exitcond.not = icmp eq i64 %47, %26
  br i1 %exitcond.not, label %._crit_edge, label %31

._crit_edge:                                      ; preds = %46, %.preheader
  %48 = call i32 @H5CX_get_max_temp_buf(ptr noundef nonnull %2) #9
  %49 = icmp slt i32 %48, 0
  br i1 %49, label %50, label %54

50:                                               ; preds = %._crit_edge
  %51 = load i64, ptr @H5E_DATASET_g, align 8
  %52 = load i64, ptr @H5E_CANTGET_g, align 8
  %53 = call i32 (ptr, ptr, i32, i64, i64, ptr, ...) @H5E_printf_stack(ptr noundef nonnull @.str.1, ptr noundef nonnull @__func__.H5D__typeinfo_init_phase2, i32 noundef 1204, i64 noundef %51, i64 noundef %52, ptr noundef nonnull @.str.45) #9
  br label %72

54:                                               ; preds = %._crit_edge
  %55 = getelementptr inbounds i8, ptr %0, i64 192
  %56 = load i64, ptr %55, align 8
  %57 = load i64, ptr %2, align 8
  %58 = icmp ugt i64 %56, %57
  br i1 %58, label %.thread42, label %64

.thread42:                                        ; preds = %54
  store i32 1, ptr %3, align 8
  %59 = getelementptr inbounds i8, ptr %0, i64 236
  %60 = load i32, ptr %59, align 4
  %61 = or i32 %60, 128
  store i32 %61, ptr %59, align 4
  store i64 0, ptr %55, align 8
  %62 = getelementptr inbounds i8, ptr %0, i64 216
  store i64 0, ptr %62, align 8
  %63 = getelementptr inbounds i8, ptr %0, i64 232
  store i8 0, ptr %63, align 8
  br label %72

64:                                               ; preds = %54
  %.phi.trans.insert = getelementptr inbounds i8, ptr %0, i64 216
  %.pre = load i64, ptr %.phi.trans.insert, align 8
  %65 = icmp ugt i64 %.pre, %57
  br i1 %65, label %66, label %72

66:                                               ; preds = %64
  %67 = getelementptr inbounds i8, ptr %0, i64 216
  store i32 1, ptr %3, align 8
  %68 = getelementptr inbounds i8, ptr %0, i64 236
  %69 = load i32, ptr %68, align 4
  %70 = or i32 %69, 256
  store i32 %70, ptr %68, align 4
  store i64 0, ptr %55, align 8
  store i64 0, ptr %67, align 8
  %71 = getelementptr inbounds i8, ptr %0, i64 232
  store i8 0, ptr %71, align 8
  br label %72

72:                                               ; preds = %.thread42, %.thread, %19, %66, %64, %50
  %.0 = phi i32 [ -1, %50 ], [ 0, %66 ], [ 0, %64 ], [ 0, %19 ], [ 0, %.thread ], [ 0, %.thread42 ]
  ret i32 %.0
}